; ModuleID = '13/1433.c'
source_filename = "13/1433.c"
target datalayout = "e-m:e-p270:32:32-p271:32:32-p272:64:64-i64:64-f80:128-n8:16:32:64-S128"
target triple = "x86_64-pc-linux-gnu"

@.str = private unnamed_addr constant [3 x i8] c"%d\00", align 1
@.str.1 = private unnamed_addr constant [4 x i8] c" %d\00", align 1

; Function Attrs: noinline nounwind uwtable
define dso_local i32 @main() #0 {
  %1 = alloca i32, align 4
  %2 = alloca i32, align 4
  %3 = alloca i32, align 4
  %4 = alloca i32, align 4
  %5 = alloca i32, align 4
  %6 = alloca i32, align 4
  %7 = alloca [20000 x i32], align 16
  %8 = alloca [20000 x i32], align 16
  store i32 0, i32* %1, align 4
  %9 = call i32 (i8*, ...) @__isoc99_scanf(i8* getelementptr inbounds ([3 x i8], [3 x i8]* @.str, i64 0, i64 0), i32* %2)
  store i32 0, i32* %3, align 4
  br label %10

10:                                               ; preds = %19, %0
  %11 = load i32, i32* %3, align 4
  %12 = load i32, i32* %2, align 4
  %13 = icmp slt i32 %11, %12
  br i1 %13, label %14, label %22

14:                                               ; preds = %10
  %15 = load i32, i32* %3, align 4
  %16 = sext i32 %15 to i64
  %17 = getelementptr inbounds [20000 x i32], [20000 x i32]* %7, i64 0, i64 %16
  %18 = call i32 (i8*, ...) @__isoc99_scanf(i8* getelementptr inbounds ([3 x i8], [3 x i8]* @.str, i64 0, i64 0), i32* %17)
  br label %19

19:                                               ; preds = %14
  %20 = load i32, i32* %3, align 4
  %21 = add nsw i32 %20, 1
  store i32 %21, i32* %3, align 4
  br label %10

22:                                               ; preds = %10
  %23 = getelementptr inbounds [20000 x i32], [20000 x i32]* %7, i64 0, i64 0
  %24 = load i32, i32* %23, align 16
  %25 = call i32 (i8*, ...) @printf(i8* getelementptr inbounds ([3 x i8], [3 x i8]* @.str, i64 0, i64 0), i32 %24)
  store i32 1, i32* %3, align 4
  br label %26

26:                                               ; preds = %63, %22
  %27 = load i32, i32* %3, align 4
  %28 = load i32, i32* %2, align 4
  %29 = icmp slt i32 %27, %28
  br i1 %29, label %30, label %66

30:                                               ; preds = %26
  store i32 0, i32* %6, align 4
  store i32 0, i32* %4, align 4
  br label %31

31:                                               ; preds = %50, %30
  %32 = load i32, i32* %4, align 4
  %33 = load i32, i32* %3, align 4
  %34 = sub nsw i32 %33, 1
  %35 = icmp sle i32 %32, %34
  br i1 %35, label %36, label %53

36:                                               ; preds = %31
  %37 = load i32, i32* %3, align 4
  %38 = sext i32 %37 to i64
  %39 = getelementptr inbounds [20000 x i32], [20000 x i32]* %7, i64 0, i64 %38
  %40 = load i32, i32* %39, align 4
  %41 = load i32, i32* %4, align 4
  %42 = sext i32 %41 to i64
  %43 = getelementptr inbounds [20000 x i32], [20000 x i32]* %7, i64 0, i64 %42
  %44 = load i32, i32* %43, align 4
  %45 = icmp eq i32 %40, %44
  br i1 %45, label %46, label %49

46:                                               ; preds = %36
  %47 = load i32, i32* %6, align 4
  %48 = add nsw i32 %47, 1
  store i32 %48, i32* %6, align 4
  br label %49

49:                                               ; preds = %46, %36
  br label %50

50:                                               ; preds = %49
  %51 = load i32, i32* %4, align 4
  %52 = add nsw i32 %51, 1
  store i32 %52, i32* %4, align 4
  br label %31

53:                                               ; preds = %31
  %54 = load i32, i32* %6, align 4
  %55 = icmp eq i32 %54, 0
  br i1 %55, label %56, label %62

56:                                               ; preds = %53
  %57 = load i32, i32* %3, align 4
  %58 = sext i32 %57 to i64
  %59 = getelementptr inbounds [20000 x i32], [20000 x i32]* %7, i64 0, i64 %58
  %60 = load i32, i32* %59, align 4
  %61 = call i32 (i8*, ...) @printf(i8* getelementptr inbounds ([4 x i8], [4 x i8]* @.str.1, i64 0, i64 0), i32 %60)
  br label %62

62:                                               ; preds = %56, %53
  br label %63

63:                                               ; preds = %62
  %64 = load i32, i32* %3, align 4
  %65 = add nsw i32 %64, 1
  store i32 %65, i32* %3, align 4
  br label %26

66:                                               ; preds = %26
  ret i32 0
}

declare dso_local i32 @__isoc99_scanf(i8*, ...) #1

declare dso_local i32 @printf(i8*, ...) #1


!llvm.module.flags = !{!0}
!llvm.ident = !{!1}

!0 = !{i32 1, !"wchar_size", i32 4}
!1 = !{!"clang version 10.0.0-4ubuntu1 "}
